; Function Attrs: nounwind uwtable
define internal void @collect_signatures(ptr noundef %0, ptr noundef %1) #0 {
  %3 = tail call ptr @app_get0_propq() #14
  %4 = tail call ptr @app_get0_libctx() #14
  %5 = tail call ptr @EVP_SIGNATURE_get0_name(ptr noundef %0) #14
  %6 = tail call i32 @ERR_set_mark() #14
  %7 = tail call ptr @EVP_SIGNATURE_fetch(ptr noundef %4, ptr noundef %5, ptr noundef %3) #14
  %8 = tail call i32 @ERR_pop_to_mark() #14
  %9 = icmp eq ptr %7, null
  br i1 %9, label %is_signature_fetchable.exit.thread, label %10

10:                                               ; preds = %2
  tail call void @EVP_SIGNATURE_free(ptr noundef nonnull %7) #14
  %11 = tail call i32 @OPENSSL_sk_push(ptr noundef %1, ptr noundef %0) #14
  %12 = icmp sgt i32 %11, 0
  br i1 %12, label %13, label %is_signature_fetchable.exit.thread

13:                                               ; preds = %10
  %14 = tail call i32 @EVP_SIGNATURE_up_ref(ptr noundef %0) #14
  br label %is_signature_fetchable.exit.thread

is_signature_fetchable.exit.thread:               ; preds = %2, %13, %10
  ret void
}